target datalayout = "e-m:e-p270:32:32-p271:32:32-p272:64:64-i64:64-i128:128-f80:128-n8:16:32:64-S128"
target triple = "x86_64-pc-linux-gnu"

%struct._e_guid_t = type { i32, i16, i16, [8 x i8] }
%struct._address = type { i32, i32, ptr, ptr }
%struct._dcerpc_info = type { ptr, i32, i64, i8, i8, i8, i32, i32, i32, i32, i32, i32, i32, i32, ptr, ptr, ptr, ptr, %struct.anon }
%struct.anon = type { i8, ptr, ptr, ptr, i8 }
%struct._dcerpc_call_value = type { %struct._e_guid_t, i16, %struct._e_guid_t, i16, i32, %struct.nstime_t, i32, i32, ptr, ptr, ptr, i32 }
%struct.nstime_t = type { i64, i32 }
%struct._packet_info = type { ptr, ptr, i32, i32, %struct.nstime_t, %struct.nstime_t, %struct.nstime_t, i8, ptr, ptr, ptr, ptr, %struct._address, %struct._address, %struct._address, %struct._address, %struct._address, %struct._address, i32, ptr, i8, [3 x i8], %struct.anon.0, i32, i32, i32, i32, ptr, i8, ptr, ptr, i16, i16, i32, i32, i16, i32, i32, ptr, ptr, ptr, i8, i8, i16, i16, i16, i32, i16, i16, ptr, ptr, ptr, ptr, ptr, i32, i32 }
%struct.anon.0 = type { i8, [3 x i8] }
%struct._frame_data = type <{ i32, i32, i32, i32, i32, [4 x i8], i64, ptr, ptr, ptr, i8, i16, [5 x i8], %struct.nstime_t, %struct.nstime_t, i32, i32 }>
%struct._proto_node = type { ptr, ptr, ptr, ptr, ptr, ptr, ptr }
%struct._dcerpc_dg_call_key = type { ptr, i32, %struct._e_guid_t }
%struct._dcerpc_matched_key = type { i32, i32 }
%struct._e_dce_dg_common_hdr_t = type { i8, i8, i8, i8, [3 x i8], i8, %struct._e_guid_t, %struct._e_guid_t, %struct._e_guid_t, i32, i32, i32, i16, i16, i16, i16, i16, i8, i8 }
%struct.field_info = type { ptr, i32, i32, i32, i32, i32, i32, ptr, ptr, ptr, i32, i32 }

@hf_dcerpc_response_in = internal global i32 0, align 4
@dcerpc_dg_calls = internal global ptr null, align 8
@dcerpc_matched = internal global ptr null, align 8
@.str.431 = private unnamed_addr constant [1 x i8] zeroinitializer, align 1
@.str.671 = private unnamed_addr constant [14 x i8] c", [Resp: #%u]\00", align 1

; Function Attrs: inlinehint nounwind null_pointer_is_valid sspstrong uwtable
define internal void @proto_item_set_generated(ptr noundef %0) #12 {
  %2 = alloca ptr, align 8
  store ptr %0, ptr %2, align 8
  %3 = load ptr, ptr %2, align 8
  %4 = icmp ne ptr %3, null
  br i1 %4, label %5, label %24

5:                                                ; preds = %1
  br label %6

6:                                                ; preds = %5
  %7 = load ptr, ptr %2, align 8
  %8 = getelementptr inbounds nuw %struct._proto_node, ptr %7, i32 0, i32 5
  %9 = load ptr, ptr %8, align 8
  %10 = icmp ne ptr %9, null
  br i1 %10, label %11, label %22

11:                                               ; preds = %6
  %12 = load ptr, ptr %2, align 8
  %13 = getelementptr inbounds nuw %struct._proto_node, ptr %12, i32 0, i32 5
  %14 = load ptr, ptr %13, align 8
  %15 = getelementptr inbounds nuw %struct.field_info, ptr %14, i32 0, i32 6
  %16 = load i32, ptr %15, align 4
  %17 = or i32 %16, 2
  %18 = load ptr, ptr %2, align 8
  %19 = getelementptr inbounds nuw %struct._proto_node, ptr %18, i32 0, i32 5
  %20 = load ptr, ptr %19, align 8
  %21 = getelementptr inbounds nuw %struct.field_info, ptr %20, i32 0, i32 6
  store i32 %17, ptr %21, align 4
  br label %22

22:                                               ; preds = %11, %6
  br label %23

23:                                               ; preds = %22
  br label %24

24:                                               ; preds = %23, %1
  ret void
}

; Function Attrs: null_pointer_is_valid sspstrong uwtable
define internal void @dissect_dcerpc_dg_rqst(ptr noundef %0, i32 noundef %1, ptr noundef %2, ptr noundef %3, ptr noundef %4, ptr noundef %5, ptr noundef %6) #0 {
  %8 = alloca ptr, align 8
  %9 = alloca i32, align 4
  %10 = alloca ptr, align 8
  %11 = alloca ptr, align 8
  %12 = alloca ptr, align 8
  %13 = alloca ptr, align 8
  %14 = alloca ptr, align 8
  %15 = alloca ptr, align 8
  %16 = alloca ptr, align 8
  %17 = alloca %struct._dcerpc_matched_key, align 4
  %18 = alloca ptr, align 8
  %19 = alloca ptr, align 8
  %20 = alloca ptr, align 8
  %21 = alloca ptr, align 8
  %22 = alloca ptr, align 8
  store ptr %0, ptr %8, align 8
  store i32 %1, ptr %9, align 4
  store ptr %2, ptr %10, align 8
  store ptr %3, ptr %11, align 8
  store ptr %4, ptr %12, align 8
  store ptr %5, ptr %13, align 8
  store ptr %6, ptr %14, align 8
  call void @llvm.lifetime.start.p0(i64 8, ptr %15) #19
  call void @llvm.lifetime.start.p0(i64 8, ptr %16) #19
  call void @llvm.lifetime.start.p0(i64 8, ptr %17) #19
  call void @llvm.lifetime.start.p0(i64 8, ptr %18) #19
  call void @llvm.lifetime.start.p0(i64 8, ptr %19) #19
  call void @llvm.lifetime.start.p0(i64 8, ptr %20) #19
  %23 = load ptr, ptr %10, align 8
  %24 = getelementptr inbounds nuw %struct._packet_info, ptr %23, i32 0, i32 8
  %25 = load ptr, ptr %24, align 8
  %26 = getelementptr inbounds nuw %struct._frame_data, ptr %25, i32 0, i32 11
  %27 = load i16, ptr %26, align 1
  %28 = lshr i16 %27, 3
  %29 = and i16 %28, 1
  %30 = zext i16 %29 to i32
  %31 = icmp ne i32 %30, 0
  br i1 %31, label %109, label %32

32:                                               ; preds = %7
  call void @llvm.lifetime.start.p0(i64 8, ptr %21) #19
  call void @llvm.lifetime.start.p0(i64 8, ptr %22) #19
  %33 = call ptr @wmem_file_scope()
  %34 = call noalias ptr @wmem_alloc(ptr noundef %33, i64 noundef 32) #22
  store ptr %34, ptr %22, align 8
  %35 = load ptr, ptr %14, align 8
  %36 = load ptr, ptr %22, align 8
  %37 = getelementptr inbounds nuw %struct._dcerpc_dg_call_key, ptr %36, i32 0, i32 0
  store ptr %35, ptr %37, align 8
  %38 = load ptr, ptr %13, align 8
  %39 = getelementptr inbounds nuw %struct._e_dce_dg_common_hdr_t, ptr %38, i32 0, i32 11
  %40 = load i32, ptr %39, align 4
  %41 = load ptr, ptr %22, align 8
  %42 = getelementptr inbounds nuw %struct._dcerpc_dg_call_key, ptr %41, i32 0, i32 1
  store i32 %40, ptr %42, align 8
  %43 = load ptr, ptr %22, align 8
  %44 = getelementptr inbounds nuw %struct._dcerpc_dg_call_key, ptr %43, i32 0, i32 2
  %45 = load ptr, ptr %13, align 8
  %46 = getelementptr inbounds nuw %struct._e_dce_dg_common_hdr_t, ptr %45, i32 0, i32 8
  call void @llvm.memcpy.p0.p0.i64(ptr align 4 %44, ptr align 4 %46, i64 16, i1 false)
  %47 = call ptr @wmem_file_scope()
  %48 = call noalias ptr @wmem_alloc(ptr noundef %47, i64 noundef 104) #22
  store ptr %48, ptr %21, align 8
  %49 = load ptr, ptr %21, align 8
  %50 = getelementptr inbounds nuw %struct._dcerpc_call_value, ptr %49, i32 0, i32 0
  %51 = load ptr, ptr %13, align 8
  %52 = getelementptr inbounds nuw %struct._e_dce_dg_common_hdr_t, ptr %51, i32 0, i32 7
  call void @llvm.memcpy.p0.p0.i64(ptr align 8 %50, ptr align 4 %52, i64 16, i1 false)
  %53 = load ptr, ptr %13, align 8
  %54 = getelementptr inbounds nuw %struct._e_dce_dg_common_hdr_t, ptr %53, i32 0, i32 10
  %55 = load i32, ptr %54, align 4
  %56 = trunc i32 %55 to i16
  %57 = load ptr, ptr %21, align 8
  %58 = getelementptr inbounds nuw %struct._dcerpc_call_value, ptr %57, i32 0, i32 1
  store i16 %56, ptr %58, align 8
  %59 = load ptr, ptr %21, align 8
  %60 = getelementptr inbounds nuw %struct._dcerpc_call_value, ptr %59, i32 0, i32 2
  %61 = load ptr, ptr %13, align 8
  %62 = getelementptr inbounds nuw %struct._e_dce_dg_common_hdr_t, ptr %61, i32 0, i32 6
  call void @llvm.memcpy.p0.p0.i64(ptr align 4 %60, ptr align 4 %62, i64 16, i1 false)
  %63 = load ptr, ptr %13, align 8
  %64 = getelementptr inbounds nuw %struct._e_dce_dg_common_hdr_t, ptr %63, i32 0, i32 12
  %65 = load i16, ptr %64, align 4
  %66 = load ptr, ptr %21, align 8
  %67 = getelementptr inbounds nuw %struct._dcerpc_call_value, ptr %66, i32 0, i32 3
  store i16 %65, ptr %67, align 4
  %68 = load ptr, ptr %10, align 8
  %69 = getelementptr inbounds nuw %struct._packet_info, ptr %68, i32 0, i32 3
  %70 = load i32, ptr %69, align 4
  %71 = load ptr, ptr %21, align 8
  %72 = getelementptr inbounds nuw %struct._dcerpc_call_value, ptr %71, i32 0, i32 4
  store i32 %70, ptr %72, align 8
  %73 = load ptr, ptr %21, align 8
  %74 = getelementptr inbounds nuw %struct._dcerpc_call_value, ptr %73, i32 0, i32 5
  %75 = load ptr, ptr %10, align 8
  %76 = getelementptr inbounds nuw %struct._packet_info, ptr %75, i32 0, i32 4
  call void @llvm.memcpy.p0.p0.i64(ptr align 8 %74, ptr align 8 %76, i64 16, i1 false)
  %77 = load ptr, ptr %21, align 8
  %78 = getelementptr inbounds nuw %struct._dcerpc_call_value, ptr %77, i32 0, i32 6
  store i32 0, ptr %78, align 8
  %79 = load ptr, ptr %21, align 8
  %80 = getelementptr inbounds nuw %struct._dcerpc_call_value, ptr %79, i32 0, i32 7
  store i32 0, ptr %80, align 4
  %81 = load ptr, ptr %21, align 8
  %82 = getelementptr inbounds nuw %struct._dcerpc_call_value, ptr %81, i32 0, i32 8
  store ptr null, ptr %82, align 8
  %83 = load ptr, ptr %21, align 8
  %84 = getelementptr inbounds nuw %struct._dcerpc_call_value, ptr %83, i32 0, i32 9
  store ptr null, ptr %84, align 8
  %85 = load ptr, ptr %21, align 8
  %86 = getelementptr inbounds nuw %struct._dcerpc_call_value, ptr %85, i32 0, i32 10
  store ptr null, ptr %86, align 8
  %87 = load ptr, ptr %21, align 8
  %88 = getelementptr inbounds nuw %struct._dcerpc_call_value, ptr %87, i32 0, i32 11
  store i32 0, ptr %88, align 8
  %89 = load ptr, ptr @dcerpc_dg_calls, align 8
  %90 = load ptr, ptr %22, align 8
  %91 = load ptr, ptr %21, align 8
  %92 = call ptr @wmem_map_insert(ptr noundef %89, ptr noundef %90, ptr noundef %91)
  %93 = call ptr @wmem_file_scope()
  %94 = call noalias ptr @wmem_alloc(ptr noundef %93, i64 noundef 8) #22
  store ptr %94, ptr %18, align 8
  %95 = load ptr, ptr %10, align 8
  %96 = getelementptr inbounds nuw %struct._packet_info, ptr %95, i32 0, i32 3
  %97 = load i32, ptr %96, align 4
  %98 = load ptr, ptr %18, align 8
  %99 = getelementptr inbounds nuw %struct._dcerpc_matched_key, ptr %98, i32 0, i32 0
  store i32 %97, ptr %99, align 4
  %100 = load ptr, ptr %13, align 8
  %101 = getelementptr inbounds nuw %struct._e_dce_dg_common_hdr_t, ptr %100, i32 0, i32 11
  %102 = load i32, ptr %101, align 4
  %103 = load ptr, ptr %18, align 8
  %104 = getelementptr inbounds nuw %struct._dcerpc_matched_key, ptr %103, i32 0, i32 1
  store i32 %102, ptr %104, align 4
  %105 = load ptr, ptr @dcerpc_matched, align 8
  %106 = load ptr, ptr %18, align 8
  %107 = load ptr, ptr %21, align 8
  %108 = call ptr @wmem_map_insert(ptr noundef %105, ptr noundef %106, ptr noundef %107)
  call void @llvm.lifetime.end.p0(i64 8, ptr %22) #19
  call void @llvm.lifetime.end.p0(i64 8, ptr %21) #19
  br label %109

109:                                              ; preds = %32, %7
  %110 = load ptr, ptr %10, align 8
  %111 = getelementptr inbounds nuw %struct._packet_info, ptr %110, i32 0, i32 3
  %112 = load i32, ptr %111, align 4
  %113 = getelementptr inbounds nuw %struct._dcerpc_matched_key, ptr %17, i32 0, i32 0
  store i32 %112, ptr %113, align 4
  %114 = load ptr, ptr %13, align 8
  %115 = getelementptr inbounds nuw %struct._e_dce_dg_common_hdr_t, ptr %114, i32 0, i32 11
  %116 = load i32, ptr %115, align 4
  %117 = getelementptr inbounds nuw %struct._dcerpc_matched_key, ptr %17, i32 0, i32 1
  store i32 %116, ptr %117, align 4
  %118 = load ptr, ptr @dcerpc_matched, align 8
  %119 = call ptr @wmem_map_lookup(ptr noundef %118, ptr noundef %17)
  store ptr %119, ptr %16, align 8
  %120 = load ptr, ptr %16, align 8
  %121 = icmp ne ptr %120, null
  br i1 %121, label %159, label %122

122:                                              ; preds = %109
  %123 = load ptr, ptr %10, align 8
  %124 = getelementptr inbounds nuw %struct._packet_info, ptr %123, i32 0, i32 51
  %125 = load ptr, ptr %124, align 8
  %126 = call noalias ptr @wmem_alloc(ptr noundef %125, i64 noundef 104) #22
  store ptr %126, ptr %16, align 8
  %127 = load ptr, ptr %16, align 8
  %128 = getelementptr inbounds nuw %struct._dcerpc_call_value, ptr %127, i32 0, i32 0
  %129 = load ptr, ptr %13, align 8
  %130 = getelementptr inbounds nuw %struct._e_dce_dg_common_hdr_t, ptr %129, i32 0, i32 7
  call void @llvm.memcpy.p0.p0.i64(ptr align 8 %128, ptr align 4 %130, i64 16, i1 false)
  %131 = load ptr, ptr %13, align 8
  %132 = getelementptr inbounds nuw %struct._e_dce_dg_common_hdr_t, ptr %131, i32 0, i32 10
  %133 = load i32, ptr %132, align 4
  %134 = trunc i32 %133 to i16
  %135 = load ptr, ptr %16, align 8
  %136 = getelementptr inbounds nuw %struct._dcerpc_call_value, ptr %135, i32 0, i32 1
  store i16 %134, ptr %136, align 8
  %137 = load ptr, ptr %16, align 8
  %138 = getelementptr inbounds nuw %struct._dcerpc_call_value, ptr %137, i32 0, i32 2
  %139 = load ptr, ptr %13, align 8
  %140 = getelementptr inbounds nuw %struct._e_dce_dg_common_hdr_t, ptr %139, i32 0, i32 6
  call void @llvm.memcpy.p0.p0.i64(ptr align 4 %138, ptr align 4 %140, i64 16, i1 false)
  %141 = load ptr, ptr %13, align 8
  %142 = getelementptr inbounds nuw %struct._e_dce_dg_common_hdr_t, ptr %141, i32 0, i32 12
  %143 = load i16, ptr %142, align 4
  %144 = load ptr, ptr %16, align 8
  %145 = getelementptr inbounds nuw %struct._dcerpc_call_value, ptr %144, i32 0, i32 3
  store i16 %143, ptr %145, align 4
  %146 = load ptr, ptr %10, align 8
  %147 = getelementptr inbounds nuw %struct._packet_info, ptr %146, i32 0, i32 3
  %148 = load i32, ptr %147, align 4
  %149 = load ptr, ptr %16, align 8
  %150 = getelementptr inbounds nuw %struct._dcerpc_call_value, ptr %149, i32 0, i32 4
  store i32 %148, ptr %150, align 8
  %151 = load ptr, ptr %16, align 8
  %152 = getelementptr inbounds nuw %struct._dcerpc_call_value, ptr %151, i32 0, i32 6
  store i32 0, ptr %152, align 8
  %153 = load ptr, ptr %16, align 8
  %154 = getelementptr inbounds nuw %struct._dcerpc_call_value, ptr %153, i32 0, i32 7
  store i32 0, ptr %154, align 4
  %155 = load ptr, ptr %16, align 8
  %156 = getelementptr inbounds nuw %struct._dcerpc_call_value, ptr %155, i32 0, i32 8
  store ptr null, ptr %156, align 8
  %157 = load ptr, ptr %16, align 8
  %158 = getelementptr inbounds nuw %struct._dcerpc_call_value, ptr %157, i32 0, i32 9
  store ptr null, ptr %158, align 8
  br label %159

159:                                              ; preds = %122, %109
  %160 = load ptr, ptr %10, align 8
  %161 = getelementptr inbounds nuw %struct._packet_info, ptr %160, i32 0, i32 51
  %162 = load ptr, ptr %161, align 8
  %163 = call noalias ptr @wmem_alloc0(ptr noundef %162, i64 noundef 136) #22
  store ptr %163, ptr %15, align 8
  %164 = load ptr, ptr %15, align 8
  %165 = getelementptr inbounds nuw %struct._dcerpc_info, ptr %164, i32 0, i32 15
  store ptr @.str.431, ptr %165, align 8
  %166 = load ptr, ptr %14, align 8
  %167 = load ptr, ptr %15, align 8
  %168 = getelementptr inbounds nuw %struct._dcerpc_info, ptr %167, i32 0, i32 0
  store ptr %166, ptr %168, align 8
  %169 = load ptr, ptr %13, align 8
  %170 = getelementptr inbounds nuw %struct._e_dce_dg_common_hdr_t, ptr %169, i32 0, i32 11
  %171 = load i32, ptr %170, align 4
  %172 = load ptr, ptr %15, align 8
  %173 = getelementptr inbounds nuw %struct._dcerpc_info, ptr %172, i32 0, i32 1
  store i32 %171, ptr %173, align 8
  %174 = load ptr, ptr %15, align 8
  %175 = getelementptr inbounds nuw %struct._dcerpc_info, ptr %174, i32 0, i32 2
  store i64 -1, ptr %175, align 8
  %176 = load ptr, ptr %15, align 8
  %177 = getelementptr inbounds nuw %struct._dcerpc_info, ptr %176, i32 0, i32 3
  store i8 0, ptr %177, align 8
  %178 = load ptr, ptr %16, align 8
  %179 = load ptr, ptr %15, align 8
  %180 = getelementptr inbounds nuw %struct._dcerpc_info, ptr %179, i32 0, i32 14
  store ptr %178, ptr %180, align 8
  %181 = load ptr, ptr %16, align 8
  %182 = getelementptr inbounds nuw %struct._dcerpc_call_value, ptr %181, i32 0, i32 6
  %183 = load i32, ptr %182, align 8
  %184 = icmp ne i32 %183, 0
  br i1 %184, label %185, label %204

185:                                              ; preds = %159
  %186 = load ptr, ptr %11, align 8
  %187 = load i32, ptr @hf_dcerpc_response_in, align 4
  %188 = load ptr, ptr %8, align 8
  %189 = load ptr, ptr %16, align 8
  %190 = getelementptr inbounds nuw %struct._dcerpc_call_value, ptr %189, i32 0, i32 6
  %191 = load i32, ptr %190, align 8
  %192 = call ptr @proto_tree_add_uint(ptr noundef %186, i32 noundef %187, ptr noundef %188, i32 noundef 0, i32 noundef 0, i32 noundef %191)
  store ptr %192, ptr %19, align 8
  %193 = load ptr, ptr %19, align 8
  call void @proto_item_set_generated(ptr noundef %193)
  %194 = load ptr, ptr %11, align 8
  %195 = call ptr @proto_tree_get_parent(ptr noundef %194)
  store ptr %195, ptr %20, align 8
  %196 = load ptr, ptr %20, align 8
  %197 = icmp ne ptr %196, null
  br i1 %197, label %198, label %203

198:                                              ; preds = %185
  %199 = load ptr, ptr %20, align 8
  %200 = load ptr, ptr %16, align 8
  %201 = getelementptr inbounds nuw %struct._dcerpc_call_value, ptr %200, i32 0, i32 6
  %202 = load i32, ptr %201, align 8
  call void (ptr, ptr, ...) @proto_item_append_text(ptr noundef %199, ptr noundef @.str.671, i32 noundef %202)
  br label %203

203:                                              ; preds = %198, %185
  br label %204

204:                                              ; preds = %203, %159
  %205 = load ptr, ptr %8, align 8
  %206 = load i32, ptr %9, align 4
  %207 = load ptr, ptr %10, align 8
  %208 = load ptr, ptr %11, align 8
  %209 = load ptr, ptr %12, align 8
  %210 = load ptr, ptr %13, align 8
  %211 = load ptr, ptr %15, align 8
  call void @dissect_dcerpc_dg_stub(ptr noundef %205, i32 noundef %206, ptr noundef %207, ptr noundef %208, ptr noundef %209, ptr noundef %210, ptr noundef %211)
  call void @llvm.lifetime.end.p0(i64 8, ptr %20) #19
  call void @llvm.lifetime.end.p0(i64 8, ptr %19) #19
  call void @llvm.lifetime.end.p0(i64 8, ptr %18) #19
  call void @llvm.lifetime.end.p0(i64 8, ptr %17) #19
  call void @llvm.lifetime.end.p0(i64 8, ptr %16) #19
  call void @llvm.lifetime.end.p0(i64 8, ptr %15) #19
  ret void
}