; Function Attrs: null_pointer_is_valid sspstrong uwtable
define internal fastcc void @dissect_dcerpc_dg_rqst(ptr noundef %0, ptr noundef %1, ptr noundef %2, ptr noundef %3, ptr noundef %4, ptr noundef %5) unnamed_addr #0 {
  %7 = alloca %struct._dcerpc_matched_key, align 4
  call void @llvm.lifetime.start.p0(i64 8, ptr nonnull %7) #19
  %8 = getelementptr inbounds nuw i8, ptr %1, i64 80
  %9 = load ptr, ptr %8, align 8
  %10 = getelementptr inbounds nuw i8, ptr %9, i64 57
  %11 = load i16, ptr %10, align 1
  %12 = and i16 %11, 8
  %.not = icmp eq i16 %12, 0
  br i1 %.not, label %13, label %48

13:                                               ; preds = %6
  %14 = tail call ptr @wmem_file_scope()
  %15 = tail call noalias dereferenceable_or_null(32) ptr @wmem_alloc(ptr noundef %14, i64 noundef 32) #18
  store ptr %5, ptr %15, align 8
  %16 = getelementptr inbounds nuw i8, ptr %4, i64 64
  %17 = load i32, ptr %16, align 4
  %18 = getelementptr inbounds nuw i8, ptr %15, i64 8
  store i32 %17, ptr %18, align 8
  %19 = getelementptr inbounds nuw i8, ptr %15, i64 12
  %20 = getelementptr inbounds nuw i8, ptr %4, i64 40
  tail call void @llvm.memcpy.p0.p0.i64(ptr noundef nonnull align 4 dereferenceable(16) %19, ptr noundef nonnull align 4 dereferenceable(16) %20, i64 16, i1 false)
  %21 = tail call ptr @wmem_file_scope()
  %22 = tail call noalias dereferenceable_or_null(104) ptr @wmem_alloc(ptr noundef %21, i64 noundef 104) #18
  %23 = getelementptr inbounds nuw i8, ptr %4, i64 24
  tail call void @llvm.memcpy.p0.p0.i64(ptr noundef align 8 dereferenceable(16) %22, ptr noundef nonnull align 4 dereferenceable(16) %23, i64 16, i1 false)
  %24 = getelementptr inbounds nuw i8, ptr %4, i64 60
  %25 = load i32, ptr %24, align 4
  %26 = trunc i32 %25 to i16
  %27 = getelementptr inbounds nuw i8, ptr %22, i64 16
  store i16 %26, ptr %27, align 8
  %28 = getelementptr inbounds nuw i8, ptr %22, i64 20
  %29 = getelementptr inbounds nuw i8, ptr %4, i64 8
  tail call void @llvm.memcpy.p0.p0.i64(ptr noundef nonnull align 4 dereferenceable(16) %28, ptr noundef nonnull align 4 dereferenceable(16) %29, i64 16, i1 false)
  %30 = getelementptr inbounds nuw i8, ptr %4, i64 68
  %31 = load i16, ptr %30, align 4
  %32 = getelementptr inbounds nuw i8, ptr %22, i64 36
  store i16 %31, ptr %32, align 4
  %33 = getelementptr inbounds nuw i8, ptr %1, i64 20
  %34 = load i32, ptr %33, align 4
  %35 = getelementptr inbounds nuw i8, ptr %22, i64 40
  store i32 %34, ptr %35, align 8
  %36 = getelementptr inbounds nuw i8, ptr %22, i64 48
  %37 = getelementptr inbounds nuw i8, ptr %1, i64 24
  tail call void @llvm.memcpy.p0.p0.i64(ptr noundef nonnull align 8 dereferenceable(16) %36, ptr noundef nonnull align 8 dereferenceable(16) %37, i64 16, i1 false)
  %38 = getelementptr inbounds nuw i8, ptr %22, i64 64
  tail call void @llvm.memset.p0.i64(ptr noundef nonnull align 8 dereferenceable(36) %38, i8 0, i64 36, i1 false)
  %39 = load ptr, ptr @dcerpc_dg_calls, align 8
  %40 = tail call ptr @wmem_map_insert(ptr noundef %39, ptr noundef %15, ptr noundef %22)
  %41 = tail call ptr @wmem_file_scope()
  %42 = tail call noalias dereferenceable_or_null(8) ptr @wmem_alloc(ptr noundef %41, i64 noundef 8) #18
  %43 = load i32, ptr %33, align 4
  store i32 %43, ptr %42, align 4
  %44 = load i32, ptr %16, align 4
  %45 = getelementptr inbounds nuw i8, ptr %42, i64 4
  store i32 %44, ptr %45, align 4
  %46 = load ptr, ptr @dcerpc_matched, align 8
  %47 = tail call ptr @wmem_map_insert(ptr noundef %46, ptr noundef %42, ptr noundef %22)
  br label %48

48:                                               ; preds = %13, %6
  %49 = getelementptr inbounds nuw i8, ptr %1, i64 20
  %50 = load i32, ptr %49, align 4
  store i32 %50, ptr %7, align 4
  %51 = getelementptr inbounds nuw i8, ptr %4, i64 64
  %52 = load i32, ptr %51, align 4
  %53 = getelementptr inbounds nuw i8, ptr %7, i64 4
  store i32 %52, ptr %53, align 4
  %54 = load ptr, ptr @dcerpc_matched, align 8
  %55 = call ptr @wmem_map_lookup(ptr noundef %54, ptr noundef nonnull %7)
  %.not79 = icmp eq ptr %55, null
  br i1 %.not79, label %56, label %73

56:                                               ; preds = %48
  %57 = getelementptr inbounds nuw i8, ptr %1, i64 408
  %58 = load ptr, ptr %57, align 8
  %59 = call noalias dereferenceable_or_null(104) ptr @wmem_alloc(ptr noundef %58, i64 noundef 104) #18
  %60 = getelementptr inbounds nuw i8, ptr %4, i64 24
  call void @llvm.memcpy.p0.p0.i64(ptr noundef align 8 dereferenceable(16) %59, ptr noundef nonnull align 4 dereferenceable(16) %60, i64 16, i1 false)
  %61 = getelementptr inbounds nuw i8, ptr %4, i64 60
  %62 = load i32, ptr %61, align 4
  %63 = trunc i32 %62 to i16
  %64 = getelementptr inbounds nuw i8, ptr %59, i64 16
  store i16 %63, ptr %64, align 8
  %65 = getelementptr inbounds nuw i8, ptr %59, i64 20
  %66 = getelementptr inbounds nuw i8, ptr %4, i64 8
  call void @llvm.memcpy.p0.p0.i64(ptr noundef nonnull align 4 dereferenceable(16) %65, ptr noundef nonnull align 4 dereferenceable(16) %66, i64 16, i1 false)
  %67 = getelementptr inbounds nuw i8, ptr %4, i64 68
  %68 = load i16, ptr %67, align 4
  %69 = getelementptr inbounds nuw i8, ptr %59, i64 36
  store i16 %68, ptr %69, align 4
  %70 = load i32, ptr %49, align 4
  %71 = getelementptr inbounds nuw i8, ptr %59, i64 40
  store i32 %70, ptr %71, align 8
  %72 = getelementptr inbounds nuw i8, ptr %59, i64 64
  call void @llvm.memset.p0.i64(ptr noundef nonnull align 8 dereferenceable(24) %72, i8 0, i64 24, i1 false)
  br label %73

73:                                               ; preds = %56, %48
  %.0 = phi ptr [ %55, %48 ], [ %59, %56 ]
  %74 = getelementptr inbounds nuw i8, ptr %1, i64 408
  %75 = load ptr, ptr %74, align 8
  %76 = call noalias dereferenceable_or_null(136) ptr @wmem_alloc0(ptr noundef %75, i64 noundef 136) #18
  %77 = getelementptr inbounds nuw i8, ptr %76, i64 72
  store ptr @.str.431, ptr %77, align 8
  store ptr %5, ptr %76, align 8
  %78 = load i32, ptr %51, align 4
  %79 = getelementptr inbounds nuw i8, ptr %76, i64 8
  store i32 %78, ptr %79, align 8
  %80 = getelementptr inbounds nuw i8, ptr %76, i64 16
  store i64 -1, ptr %80, align 8
  %81 = getelementptr inbounds nuw i8, ptr %76, i64 24
  store i8 0, ptr %81, align 8
  %82 = getelementptr inbounds nuw i8, ptr %76, i64 64
  store ptr %.0, ptr %82, align 8
  %83 = getelementptr inbounds nuw i8, ptr %.0, i64 64
  %84 = load i32, ptr %83, align 8
  %.not80 = icmp eq i32 %84, 0
  br i1 %.not80, label %98, label %85

85:                                               ; preds = %73
  %86 = load i32, ptr @hf_dcerpc_response_in, align 4
  %87 = call ptr @proto_tree_add_uint(ptr noundef %2, i32 noundef %86, ptr noundef %0, i32 noundef 0, i32 noundef 0, i32 noundef %84)
  %.not.i = icmp eq ptr %87, null
  br i1 %.not.i, label %proto_item_set_generated.exit, label %88

88:                                               ; preds = %85
  %89 = getelementptr inbounds nuw i8, ptr %87, i64 40
  %90 = load ptr, ptr %89, align 8
  %.not5.i = icmp eq ptr %90, null
  br i1 %.not5.i, label %proto_item_set_generated.exit, label %91

91:                                               ; preds = %88
  %92 = getelementptr inbounds nuw i8, ptr %90, i64 28
  %93 = load i32, ptr %92, align 4
  %94 = or i32 %93, 2
  store i32 %94, ptr %92, align 4
  br label %proto_item_set_generated.exit

proto_item_set_generated.exit:                    ; preds = %85, %88, %91
  %95 = call ptr @proto_tree_get_parent(ptr noundef %2)
  %.not81 = icmp eq ptr %95, null
  br i1 %.not81, label %98, label %96

96:                                               ; preds = %proto_item_set_generated.exit
  %97 = load i32, ptr %83, align 8
  call void (ptr, ptr, ...) @proto_item_append_text(ptr noundef nonnull %95, ptr noundef nonnull @.str.671, i32 noundef %97)
  br label %98

98:                                               ; preds = %proto_item_set_generated.exit, %96, %73
  call fastcc void @dissect_dcerpc_dg_stub(ptr noundef %0, ptr noundef %1, ptr noundef %2, ptr noundef %3, ptr noundef %4, ptr noundef %76)
  call void @llvm.lifetime.end.p0(i64 8, ptr nonnull %7) #19
  ret void
}